target datalayout = "e-m:e-p270:32:32-p271:32:32-p272:64:64-i64:64-i128:128-f80:128-n8:16:32:64-S128"
target triple = "x86_64-pc-linux-gnu"

@hf_bthci_evt_rssi = internal global i32 0, align 4
@hf_bthci_evt_antenna_id = internal global i32 0, align 4
@hf_bthci_evt_nadm_attack_chance = internal global i32 0, align 4
@hf_bthci_evt_toa_tod_initiator = internal global i32 0, align 4
@hf_bthci_evt_tod_toa_reflector = internal global i32 0, align 4
@hf_bthci_evt_pct1 = internal global i32 0, align 4
@hf_bthci_evt_pct2 = internal global i32 0, align 4
@hf_bthci_evt_pct_not_available = internal global i32 0, align 4
@hf_bthci_evt_pct_i_sample = internal global i32 0, align 4
@hf_bthci_evt_pct_q_sample = internal global i32 0, align 4
@ett_cs_pct_sample = internal global i32 0, align 4
@.str.1824 = private unnamed_addr constant [1 x i8] zeroinitializer, align 1
@.str.1846 = private unnamed_addr constant [16 x i8] c"PCT1 I/Q Sample\00", align 1
@.str.1847 = private unnamed_addr constant [16 x i8] c"PCT2 I/Q Sample\00", align 1

; Function Attrs: null_pointer_is_valid sspstrong uwtable
define internal i32 @dissect_bthci_evt_cs_mode1_step(ptr noundef %0, i32 noundef %1, ptr noundef %2, ptr noundef %3, i1 noundef zeroext %4, i1 noundef zeroext %5) #1 {
  %7 = alloca ptr, align 8
  %8 = alloca i32, align 4
  %9 = alloca ptr, align 8
  %10 = alloca ptr, align 8
  %11 = alloca i8, align 1
  %12 = alloca i8, align 1
  %13 = alloca ptr, align 8
  %14 = alloca ptr, align 8
  store ptr %0, ptr %7, align 8
  store i32 %1, ptr %8, align 4
  store ptr %2, ptr %9, align 8
  store ptr %3, ptr %10, align 8
  %15 = zext i1 %4 to i8
  store i8 %15, ptr %11, align 1
  %16 = zext i1 %5 to i8
  store i8 %16, ptr %12, align 1
  %17 = load ptr, ptr %10, align 8
  %18 = load i32, ptr @hf_bthci_evt_nadm_attack_chance, align 4
  %19 = load ptr, ptr %7, align 8
  %20 = load i32, ptr %8, align 4
  %21 = call ptr @proto_tree_add_item(ptr noundef %17, i32 noundef %18, ptr noundef %19, i32 noundef %20, i32 noundef 1, i32 noundef 0)
  %22 = load i32, ptr %8, align 4
  %23 = add i32 %22, 1
  store i32 %23, ptr %8, align 4
  %24 = load ptr, ptr %10, align 8
  %25 = load i32, ptr @hf_bthci_evt_rssi, align 4
  %26 = load ptr, ptr %7, align 8
  %27 = load i32, ptr %8, align 4
  %28 = call ptr @proto_tree_add_item(ptr noundef %24, i32 noundef %25, ptr noundef %26, i32 noundef %27, i32 noundef 1, i32 noundef 0)
  %29 = load i32, ptr %8, align 4
  %30 = add i32 %29, 1
  store i32 %30, ptr %8, align 4
  %31 = load i8, ptr %11, align 1, !range !6, !noundef !7
  %32 = trunc i8 %31 to i1
  br i1 %32, label %33, label %39

33:                                               ; preds = %6
  %34 = load ptr, ptr %10, align 8
  %35 = load i32, ptr @hf_bthci_evt_toa_tod_initiator, align 4
  %36 = load ptr, ptr %7, align 8
  %37 = load i32, ptr %8, align 4
  %38 = call ptr @proto_tree_add_item(ptr noundef %34, i32 noundef %35, ptr noundef %36, i32 noundef %37, i32 noundef 2, i32 noundef -2147483648)
  br label %45

39:                                               ; preds = %6
  %40 = load ptr, ptr %10, align 8
  %41 = load i32, ptr @hf_bthci_evt_tod_toa_reflector, align 4
  %42 = load ptr, ptr %7, align 8
  %43 = load i32, ptr %8, align 4
  %44 = call ptr @proto_tree_add_item(ptr noundef %40, i32 noundef %41, ptr noundef %42, i32 noundef %43, i32 noundef 2, i32 noundef -2147483648)
  br label %45

45:                                               ; preds = %39, %33
  %46 = load i32, ptr %8, align 4
  %47 = add i32 %46, 2
  store i32 %47, ptr %8, align 4
  %48 = load ptr, ptr %10, align 8
  %49 = load i32, ptr @hf_bthci_evt_antenna_id, align 4
  %50 = load ptr, ptr %7, align 8
  %51 = load i32, ptr %8, align 4
  %52 = call ptr @proto_tree_add_item(ptr noundef %48, i32 noundef %49, ptr noundef %50, i32 noundef %51, i32 noundef 1, i32 noundef 0)
  %53 = load i32, ptr %8, align 4
  %54 = add i32 %53, 1
  store i32 %54, ptr %8, align 4
  %55 = load i8, ptr %12, align 1, !range !6, !noundef !7
  %56 = trunc i8 %55 to i1
  br i1 %56, label %57, label %122

57:                                               ; preds = %45
  call void @llvm.lifetime.start.p0(i64 8, ptr %13) #11
  call void @llvm.lifetime.start.p0(i64 8, ptr %14) #11
  %58 = load ptr, ptr %10, align 8
  %59 = load i32, ptr @hf_bthci_evt_pct1, align 4
  %60 = load ptr, ptr %7, align 8
  %61 = load i32, ptr %8, align 4
  %62 = call ptr (ptr, i32, ptr, i32, i32, ptr, ptr, ...) @proto_tree_add_string_format(ptr noundef %58, i32 noundef %59, ptr noundef %60, i32 noundef %61, i32 noundef 4, ptr noundef @.str.1824, ptr noundef @.str.1846)
  store ptr %62, ptr %14, align 8
  %63 = load ptr, ptr %14, align 8
  %64 = load i32, ptr @ett_cs_pct_sample, align 4
  %65 = call ptr @proto_item_add_subtree(ptr noundef %63, i32 noundef %64)
  store ptr %65, ptr %13, align 8
  %66 = load ptr, ptr %7, align 8
  %67 = load i32, ptr %8, align 4
  %68 = call i32 @tvb_get_uint32(ptr noundef %66, i32 noundef %67, i32 noundef -2147483648)
  %69 = icmp ne i32 %68, -1
  br i1 %69, label %70, label %81

70:                                               ; preds = %57
  %71 = load ptr, ptr %13, align 8
  %72 = load i32, ptr @hf_bthci_evt_pct_i_sample, align 4
  %73 = load ptr, ptr %7, align 8
  %74 = load i32, ptr %8, align 4
  %75 = call ptr @proto_tree_add_item(ptr noundef %71, i32 noundef %72, ptr noundef %73, i32 noundef %74, i32 noundef 3, i32 noundef -2147483648)
  %76 = load ptr, ptr %13, align 8
  %77 = load i32, ptr @hf_bthci_evt_pct_q_sample, align 4
  %78 = load ptr, ptr %7, align 8
  %79 = load i32, ptr %8, align 4
  %80 = call ptr @proto_tree_add_item(ptr noundef %76, i32 noundef %77, ptr noundef %78, i32 noundef %79, i32 noundef 3, i32 noundef -2147483648)
  br label %87

81:                                               ; preds = %57
  %82 = load ptr, ptr %13, align 8
  %83 = load i32, ptr @hf_bthci_evt_pct_not_available, align 4
  %84 = load ptr, ptr %7, align 8
  %85 = load i32, ptr %8, align 4
  %86 = call ptr @proto_tree_add_item(ptr noundef %82, i32 noundef %83, ptr noundef %84, i32 noundef %85, i32 noundef 4, i32 noundef -2147483648)
  br label %87

87:                                               ; preds = %81, %70
  %88 = load i32, ptr %8, align 4
  %89 = add i32 %88, 4
  store i32 %89, ptr %8, align 4
  %90 = load ptr, ptr %10, align 8
  %91 = load i32, ptr @hf_bthci_evt_pct2, align 4
  %92 = load ptr, ptr %7, align 8
  %93 = load i32, ptr %8, align 4
  %94 = call ptr (ptr, i32, ptr, i32, i32, ptr, ptr, ...) @proto_tree_add_string_format(ptr noundef %90, i32 noundef %91, ptr noundef %92, i32 noundef %93, i32 noundef 4, ptr noundef @.str.1824, ptr noundef @.str.1847)
  store ptr %94, ptr %14, align 8
  %95 = load ptr, ptr %14, align 8
  %96 = load i32, ptr @ett_cs_pct_sample, align 4
  %97 = call ptr @proto_item_add_subtree(ptr noundef %95, i32 noundef %96)
  store ptr %97, ptr %13, align 8
  %98 = load ptr, ptr %7, align 8
  %99 = load i32, ptr %8, align 4
  %100 = call i32 @tvb_get_uint32(ptr noundef %98, i32 noundef %99, i32 noundef -2147483648)
  %101 = icmp ne i32 %100, -1
  br i1 %101, label %102, label %113

102:                                              ; preds = %87
  %103 = load ptr, ptr %13, align 8
  %104 = load i32, ptr @hf_bthci_evt_pct_i_sample, align 4
  %105 = load ptr, ptr %7, align 8
  %106 = load i32, ptr %8, align 4
  %107 = call ptr @proto_tree_add_item(ptr noundef %103, i32 noundef %104, ptr noundef %105, i32 noundef %106, i32 noundef 3, i32 noundef -2147483648)
  %108 = load ptr, ptr %13, align 8
  %109 = load i32, ptr @hf_bthci_evt_pct_q_sample, align 4
  %110 = load ptr, ptr %7, align 8
  %111 = load i32, ptr %8, align 4
  %112 = call ptr @proto_tree_add_item(ptr noundef %108, i32 noundef %109, ptr noundef %110, i32 noundef %111, i32 noundef 3, i32 noundef -2147483648)
  br label %119

113:                                              ; preds = %87
  %114 = load ptr, ptr %13, align 8
  %115 = load i32, ptr @hf_bthci_evt_pct_not_available, align 4
  %116 = load ptr, ptr %7, align 8
  %117 = load i32, ptr %8, align 4
  %118 = call ptr @proto_tree_add_item(ptr noundef %114, i32 noundef %115, ptr noundef %116, i32 noundef %117, i32 noundef 4, i32 noundef -2147483648)
  br label %119

119:                                              ; preds = %113, %102
  %120 = load i32, ptr %8, align 4
  %121 = add i32 %120, 4
  store i32 %121, ptr %8, align 4
  call void @llvm.lifetime.end.p0(i64 8, ptr %14) #11
  call void @llvm.lifetime.end.p0(i64 8, ptr %13) #11
  br label %122

122:                                              ; preds = %119, %45
  %123 = load i32, ptr %8, align 4
  ret i32 %123
}