; Function Attrs: null_pointer_is_valid sspstrong uwtable
define internal fastcc noundef i32 @dissect_bthci_evt_cs_mode1_step(ptr noundef %0, i32 noundef %1, ptr noundef %2, i1 noundef zeroext %3, i1 noundef zeroext %4) unnamed_addr #1 {
  %6 = load i32, ptr @hf_bthci_evt_nadm_attack_chance, align 4
  %7 = tail call ptr @proto_tree_add_item(ptr noundef %2, i32 noundef %6, ptr noundef %0, i32 noundef %1, i32 noundef 1, i32 noundef 0)
  %8 = add i32 %1, 1
  %9 = load i32, ptr @hf_bthci_evt_rssi, align 4
  %10 = tail call ptr @proto_tree_add_item(ptr noundef %2, i32 noundef %9, ptr noundef %0, i32 noundef %8, i32 noundef 1, i32 noundef 0)
  %11 = add i32 %1, 2
  %hf_bthci_evt_toa_tod_initiator.val = load i32, ptr @hf_bthci_evt_toa_tod_initiator, align 4
  %hf_bthci_evt_tod_toa_reflector.val = load i32, ptr @hf_bthci_evt_tod_toa_reflector, align 4
  %12 = select i1 %3, i32 %hf_bthci_evt_toa_tod_initiator.val, i32 %hf_bthci_evt_tod_toa_reflector.val
  %13 = tail call ptr @proto_tree_add_item(ptr noundef %2, i32 noundef %12, ptr noundef %0, i32 noundef %11, i32 noundef 2, i32 noundef -2147483648)
  %14 = add i32 %1, 4
  %15 = load i32, ptr @hf_bthci_evt_antenna_id, align 4
  %16 = tail call ptr @proto_tree_add_item(ptr noundef %2, i32 noundef %15, ptr noundef %0, i32 noundef %14, i32 noundef 1, i32 noundef 0)
  %17 = add i32 %1, 5
  br i1 %4, label %18, label %43

18:                                               ; preds = %5
  %19 = load i32, ptr @hf_bthci_evt_pct1, align 4
  %20 = tail call ptr (ptr, i32, ptr, i32, i32, ptr, ptr, ...) @proto_tree_add_string_format(ptr noundef %2, i32 noundef %19, ptr noundef %0, i32 noundef %17, i32 noundef 4, ptr noundef nonnull @.str.1824, ptr noundef nonnull @.str.1846)
  %21 = load i32, ptr @ett_cs_pct_sample, align 4
  %22 = tail call ptr @proto_item_add_subtree(ptr noundef %20, i32 noundef %21)
  %23 = tail call i32 @tvb_get_uint32(ptr noundef %0, i32 noundef %17, i32 noundef -2147483648)
  %.not = icmp eq i32 %23, -1
  br i1 %.not, label %27, label %24

24:                                               ; preds = %18
  %25 = load i32, ptr @hf_bthci_evt_pct_i_sample, align 4
  %26 = tail call ptr @proto_tree_add_item(ptr noundef %22, i32 noundef %25, ptr noundef %0, i32 noundef %17, i32 noundef 3, i32 noundef -2147483648)
  br label %27

27:                                               ; preds = %18, %24
  %hf_bthci_evt_pct_not_available.sink = phi ptr [ @hf_bthci_evt_pct_q_sample, %24 ], [ @hf_bthci_evt_pct_not_available, %18 ]
  %.sink1 = phi i32 [ 3, %24 ], [ 4, %18 ]
  %28 = load i32, ptr %hf_bthci_evt_pct_not_available.sink, align 4
  %29 = tail call ptr @proto_tree_add_item(ptr noundef %22, i32 noundef %28, ptr noundef %0, i32 noundef %17, i32 noundef %.sink1, i32 noundef -2147483648)
  %30 = add i32 %1, 9
  %31 = load i32, ptr @hf_bthci_evt_pct2, align 4
  %32 = tail call ptr (ptr, i32, ptr, i32, i32, ptr, ptr, ...) @proto_tree_add_string_format(ptr noundef %2, i32 noundef %31, ptr noundef %0, i32 noundef %30, i32 noundef 4, ptr noundef nonnull @.str.1824, ptr noundef nonnull @.str.1847)
  %33 = load i32, ptr @ett_cs_pct_sample, align 4
  %34 = tail call ptr @proto_item_add_subtree(ptr noundef %32, i32 noundef %33)
  %35 = tail call i32 @tvb_get_uint32(ptr noundef %0, i32 noundef %30, i32 noundef -2147483648)
  %.not53 = icmp eq i32 %35, -1
  br i1 %.not53, label %39, label %36

36:                                               ; preds = %27
  %37 = load i32, ptr @hf_bthci_evt_pct_i_sample, align 4
  %38 = tail call ptr @proto_tree_add_item(ptr noundef %34, i32 noundef %37, ptr noundef %0, i32 noundef %30, i32 noundef 3, i32 noundef -2147483648)
  br label %39

39:                                               ; preds = %27, %36
  %hf_bthci_evt_pct_not_available.sink3 = phi ptr [ @hf_bthci_evt_pct_q_sample, %36 ], [ @hf_bthci_evt_pct_not_available, %27 ]
  %.sink2 = phi i32 [ 3, %36 ], [ 4, %27 ]
  %40 = load i32, ptr %hf_bthci_evt_pct_not_available.sink3, align 4
  %41 = tail call ptr @proto_tree_add_item(ptr noundef %34, i32 noundef %40, ptr noundef %0, i32 noundef %30, i32 noundef %.sink2, i32 noundef -2147483648)
  %42 = add i32 %1, 13
  br label %43

43:                                               ; preds = %39, %5
  %.0 = phi i32 [ %42, %39 ], [ %17, %5 ]
  ret i32 %.0
}